; Function Attrs: nounwind uwtable
define noalias nonnull ptr @l___private_Lean_Compiler_LCNF_DeclHash_0__Lean_Compiler_LCNF_hashDecl____x40_Lean_Compiler_LCNF_DeclHash___hyg_319____boxed(ptr noundef %0) #0 {
  %2 = tail call i64 @l___private_Lean_Compiler_LCNF_DeclHash_0__Lean_Compiler_LCNF_hashDecl____x40_Lean_Compiler_LCNF_DeclHash___hyg_319_(ptr noundef %0)
  tail call void @lean_inc_heartbeat() #3
  %3 = tail call noalias ptr @mi_malloc_small(i64 noundef 16) #3
  %4 = icmp eq ptr %3, null
  br i1 %4, label %5, label %lean_box_uint64.exit

5:                                                ; preds = %1
  tail call void @lean_internal_panic_out_of_memory() #4
  unreachable

lean_box_uint64.exit:                             ; preds = %1
  %6 = getelementptr inbounds nuw i8, ptr %3, i64 4
  store i32 1, ptr %3, align 4, !tbaa !8
  store i32 16, ptr %6, align 4
  %7 = getelementptr inbounds nuw i8, ptr %3, i64 8
  store i64 %2, ptr %7, align 8, !tbaa !12
  ret ptr %3
}